; ModuleID = '19/1040.c'
source_filename = "19/1040.c"
target datalayout = "e-m:e-p270:32:32-p271:32:32-p272:64:64-i64:64-f80:128-n8:16:32:64-S128"
target triple = "x86_64-pc-linux-gnu"

@.str = private unnamed_addr constant [2 x i8] c" \00", align 1
@.str.1 = private unnamed_addr constant [3 x i8] c"%s\00", align 1

; Function Attrs: noinline nounwind uwtable
define dso_local void @main() #0 {
  %1 = alloca i32, align 4
  %2 = alloca i32, align 4
  %3 = alloca i32, align 4
  %4 = alloca i32, align 4
  %5 = alloca i8*, align 8
  %6 = alloca i8*, align 8
  %7 = alloca i8*, align 8
  %8 = alloca i8*, align 8
  store i32 0, i32* %3, align 4
  %9 = call noalias i8* @malloc(i64 100) #4
  store i8* %9, i8** %5, align 8
  %10 = call noalias i8* @malloc(i64 100) #4
  store i8* %10, i8** %6, align 8
  %11 = call noalias i8* @malloc(i64 100) #4
  store i8* %11, i8** %7, align 8
  %12 = call noalias i8* @malloc(i64 100) #4
  store i8* %12, i8** %8, align 8
  store i32 0, i32* %1, align 4
  br label %13

13:                                               ; preds = %21, %0
  %14 = load i32, i32* %1, align 4
  %15 = icmp slt i32 %14, 100
  br i1 %15, label %16, label %24

16:                                               ; preds = %13
  %17 = load i8*, i8** %5, align 8
  %18 = load i32, i32* %1, align 4
  %19 = sext i32 %18 to i64
  %20 = getelementptr inbounds i8, i8* %17, i64 %19
  store i8 0, i8* %20, align 1
  br label %21

21:                                               ; preds = %16
  %22 = load i32, i32* %1, align 4
  %23 = add nsw i32 %22, 1
  store i32 %23, i32* %1, align 4
  br label %13

24:                                               ; preds = %13
  %25 = load i8*, i8** %5, align 8
  %26 = call i32 (i8*, ...) bitcast (i32 (...)* @gets to i32 (i8*, ...)*)(i8* %25)
  %27 = load i8*, i8** %7, align 8
  %28 = call i32 (i8*, ...) bitcast (i32 (...)* @gets to i32 (i8*, ...)*)(i8* %27)
  %29 = load i8*, i8** %8, align 8
  %30 = call i32 (i8*, ...) bitcast (i32 (...)* @gets to i32 (i8*, ...)*)(i8* %29)
  store i32 0, i32* %1, align 4
  br label %31

31:                                               ; preds = %109, %24
  %32 = load i8*, i8** %5, align 8
  %33 = load i32, i32* %1, align 4
  %34 = sext i32 %33 to i64
  %35 = getelementptr inbounds i8, i8* %32, i64 %34
  %36 = load i8, i8* %35, align 1
  %37 = sext i8 %36 to i32
  %38 = icmp ne i32 %37, 0
  br i1 %38, label %39, label %112

39:                                               ; preds = %31
  store i32 0, i32* %2, align 4
  br label %40

40:                                               ; preds = %68, %39
  %41 = load i8*, i8** %5, align 8
  %42 = load i32, i32* %1, align 4
  %43 = sext i32 %42 to i64
  %44 = getelementptr inbounds i8, i8* %41, i64 %43
  %45 = load i8, i8* %44, align 1
  %46 = sext i8 %45 to i32
  %47 = icmp ne i32 %46, 32
  br i1 %47, label %48, label %56

48:                                               ; preds = %40
  %49 = load i8*, i8** %5, align 8
  %50 = load i32, i32* %1, align 4
  %51 = sext i32 %50 to i64
  %52 = getelementptr inbounds i8, i8* %49, i64 %51
  %53 = load i8, i8* %52, align 1
  %54 = sext i8 %53 to i32
  %55 = icmp ne i32 %54, 0
  br label %56

56:                                               ; preds = %48, %40
  %57 = phi i1 [ false, %40 ], [ %55, %48 ]
  br i1 %57, label %58, label %73

58:                                               ; preds = %56
  %59 = load i8*, i8** %5, align 8
  %60 = load i32, i32* %1, align 4
  %61 = sext i32 %60 to i64
  %62 = getelementptr inbounds i8, i8* %59, i64 %61
  %63 = load i8, i8* %62, align 1
  %64 = load i8*, i8** %6, align 8
  %65 = load i32, i32* %2, align 4
  %66 = sext i32 %65 to i64
  %67 = getelementptr inbounds i8, i8* %64, i64 %66
  store i8 %63, i8* %67, align 1
  br label %68

68:                                               ; preds = %58
  %69 = load i32, i32* %1, align 4
  %70 = add nsw i32 %69, 1
  store i32 %70, i32* %1, align 4
  %71 = load i32, i32* %2, align 4
  %72 = add nsw i32 %71, 1
  store i32 %72, i32* %2, align 4
  br label %40

73:                                               ; preds = %56
  %74 = load i8*, i8** %6, align 8
  %75 = load i32, i32* %2, align 4
  %76 = sext i32 %75 to i64
  %77 = getelementptr inbounds i8, i8* %74, i64 %76
  store i8 0, i8* %77, align 1
  %78 = load i8*, i8** %6, align 8
  %79 = load i8*, i8** %7, align 8
  %80 = call i32 @strcmp(i8* %78, i8* %79) #5
  %81 = icmp eq i32 %80, 0
  br i1 %81, label %82, label %86

82:                                               ; preds = %73
  %83 = load i8*, i8** %6, align 8
  %84 = load i8*, i8** %8, align 8
  %85 = call i8* @strcpy(i8* %83, i8* %84) #4
  br label %86

86:                                               ; preds = %82, %73
  %87 = load i32, i32* %3, align 4
  %88 = icmp sgt i32 %87, 0
  br i1 %88, label %89, label %91

89:                                               ; preds = %86
  %90 = call i32 (i8*, ...) @printf(i8* getelementptr inbounds ([2 x i8], [2 x i8]* @.str, i64 0, i64 0))
  br label %91

91:                                               ; preds = %89, %86
  %92 = load i8*, i8** %6, align 8
  %93 = call i32 (i8*, ...) @printf(i8* getelementptr inbounds ([3 x i8], [3 x i8]* @.str.1, i64 0, i64 0), i8* %92)
  store i32 0, i32* %4, align 4
  br label %94

94:                                               ; preds = %103, %91
  %95 = load i32, i32* %4, align 4
  %96 = load i32, i32* %2, align 4
  %97 = icmp sle i32 %95, %96
  br i1 %97, label %98, label %106

98:                                               ; preds = %94
  %99 = load i8*, i8** %6, align 8
  %100 = load i32, i32* %4, align 4
  %101 = sext i32 %100 to i64
  %102 = getelementptr inbounds i8, i8* %99, i64 %101
  store i8 0, i8* %102, align 1
  br label %103

103:                                              ; preds = %98
  %104 = load i32, i32* %4, align 4
  %105 = add nsw i32 %104, 1
  store i32 %105, i32* %4, align 4
  br label %94

106:                                              ; preds = %94
  %107 = load i32, i32* %3, align 4
  %108 = add nsw i32 %107, 1
  store i32 %108, i32* %3, align 4
  br label %109

109:                                              ; preds = %106
  %110 = load i32, i32* %1, align 4
  %111 = add nsw i32 %110, 1
  store i32 %111, i32* %1, align 4
  br label %31

112:                                              ; preds = %31
  ret void
}

; Function Attrs: nounwind
declare dso_local noalias i8* @malloc(i64) #1

declare dso_local i32 @gets(...) #2

; Function Attrs: nounwind readonly
declare dso_local i32 @strcmp(i8*, i8*) #3

; Function Attrs: nounwind
declare dso_local i8* @strcpy(i8*, i8*) #1

declare dso_local i32 @printf(i8*, ...) #2


!llvm.module.flags = !{!0}
!llvm.ident = !{!1}

!0 = !{i32 1, !"wchar_size", i32 4}
!1 = !{!"clang version 10.0.0-4ubuntu1 "}
